target datalayout = "e-m:e-p270:32:32-p271:32:32-p272:64:64-i64:64-i128:128-f80:128-n8:16:32:64-S128"
target triple = "x86_64-pc-linux-gnu"

%struct.NarrowPtrStruct = type { ptr, i32, i8 }

@UseCompressedOops = external global i8, align 1
@_ZN6OSInfo13_vm_page_sizeE = external global i64, align 8
@_ZN14CompressedOops11_narrow_oopE = external global %struct.NarrowPtrStruct, align 8

; Function Attrs: mustprogress nounwind uwtable
define linkonce_odr hidden noundef i64 @_ZN6OSInfo12vm_page_sizeEv() #1 comdat align 2 {
  %1 = load i64, ptr @_ZN6OSInfo13_vm_page_sizeE, align 8
  ret i64 %1
}

; Function Attrs: mustprogress nounwind uwtable
define linkonce_odr hidden noundef ptr @_ZN14CompressedOops4baseEv() #1 comdat align 2 {
  %1 = load ptr, ptr @_ZN14CompressedOops11_narrow_oopE, align 8
  ret ptr %1
}

; Function Attrs: mustprogress nounwind uwtable
define linkonce_odr hidden noundef i64 @_ZN2os12vm_page_sizeEv() #1 comdat align 2 {
  %1 = call noundef i64 @_ZN6OSInfo12vm_page_sizeEv()
  ret i64 %1
}

; Function Attrs: mustprogress nounwind uwtable
define hidden noundef zeroext i1 @_ZN14MacroAssembler24uses_implicit_null_checkEPv(ptr noundef %0) #1 align 2 {
  %2 = alloca i1, align 1
  %3 = alloca ptr, align 8
  %4 = alloca i64, align 8
  %5 = alloca i64, align 8
  %6 = alloca i64, align 8
  %7 = alloca i64, align 8
  store ptr %0, ptr %3, align 8
  %8 = load ptr, ptr %3, align 8
  %9 = ptrtoint ptr %8 to i64
  store i64 %9, ptr %4, align 8
  %10 = call noundef i64 @_ZN2os12vm_page_sizeEv()
  store i64 %10, ptr %5, align 8
  %11 = load i8, ptr @UseCompressedOops, align 1
  %12 = trunc i8 %11 to i1
  br i1 %12, label %13, label %31

13:                                               ; preds = %1
  %14 = call noundef ptr @_ZN14CompressedOops4baseEv()
  %15 = icmp ne ptr %14, null
  br i1 %15, label %16, label %31

16:                                               ; preds = %13
  %17 = call noundef ptr @_ZN14CompressedOops4baseEv()
  %18 = ptrtoint ptr %17 to i64
  store i64 %18, ptr %6, align 8
  %19 = load i64, ptr %6, align 8
  %20 = load i64, ptr %5, align 8
  %21 = add i64 %19, %20
  store i64 %21, ptr %7, align 8
  %22 = load i64, ptr %4, align 8
  %23 = load i64, ptr %6, align 8
  %24 = icmp uge i64 %22, %23
  br i1 %24, label %25, label %30

25:                                               ; preds = %16
  %26 = load i64, ptr %4, align 8
  %27 = load i64, ptr %7, align 8
  %28 = icmp ult i64 %26, %27
  br i1 %28, label %29, label %30

29:                                               ; preds = %25
  store i1 true, ptr %2, align 1
  br label %35

30:                                               ; preds = %25, %16
  br label %31

31:                                               ; preds = %30, %13, %1
  %32 = load i64, ptr %4, align 8
  %33 = load i64, ptr %5, align 8
  %34 = icmp ult i64 %32, %33
  store i1 %34, ptr %2, align 1
  br label %35

35:                                               ; preds = %31, %29
  %36 = load i1, ptr %2, align 1
  ret i1 %36
}