; Function Attrs: mustprogress nofree norecurse nosync nounwind willreturn memory(read, argmem: none, inaccessiblemem: none) uwtable
define hidden noundef zeroext i1 @_ZN14MacroAssembler24uses_implicit_null_checkEPv(ptr noundef %0) local_unnamed_addr #6 align 2 {
  %2 = ptrtoint ptr %0 to i64
  %3 = load i64, ptr @_ZN6OSInfo13_vm_page_sizeE, align 8
  %4 = load i8, ptr @UseCompressedOops, align 1
  %5 = trunc i8 %4 to i1
  br i1 %5, label %6, label %12

6:                                                ; preds = %1
  %7 = load ptr, ptr @_ZN14CompressedOops11_narrow_oopE, align 8
  %.not = icmp eq ptr %7, null
  br i1 %.not, label %12, label %8

8:                                                ; preds = %6
  %.not10 = icmp ule ptr %7, %0
  %9 = ptrtoint ptr %7 to i64
  %10 = add i64 %3, %9
  %11 = icmp ugt i64 %10, %2
  %or.cond = and i1 %.not10, %11
  br i1 %or.cond, label %14, label %12

12:                                               ; preds = %8, %6, %1
  %13 = icmp ugt i64 %3, %2
  br label %14

14:                                               ; preds = %8, %12
  %.0 = phi i1 [ %13, %12 ], [ true, %8 ]
  ret i1 %.0
}